; Function Attrs: mustprogress uwtable
define noundef zeroext i1 @_ZN2cv7fisheye8solvePnPERKNS_11_InputArrayES3_S3_S3_RKNS_12_OutputArrayES6_biNS_12TermCriteriaE(ptr noundef nonnull align 8 dereferenceable(24) %0, ptr noundef nonnull align 8 dereferenceable(24) %1, ptr noundef nonnull align 8 dereferenceable(24) %2, ptr noundef nonnull align 8 dereferenceable(24) %3, ptr noundef nonnull align 8 dereferenceable(24) %4, ptr noundef nonnull align 8 dereferenceable(24) %5, i1 noundef zeroext %6, i32 noundef %7, ptr noundef readonly byval(%"class.cv::TermCriteria") align 8 captures(none) %8) local_unnamed_addr #3 personality ptr @__gxx_personality_v0 {
  %10 = alloca %"class.cv::Mat", align 8
  %11 = alloca %"class.cv::_OutputArray", align 8
  %12 = alloca %"class.cv::_InputArray", align 8
  call void @llvm.lifetime.start.p0(i64 96, ptr nonnull %10) #23
  call void @_ZN2cv3MatC1Ev(ptr noundef nonnull align 8 dereferenceable(96) %10) #23
  call void @llvm.lifetime.start.p0(i64 24, ptr nonnull %11) #23
  %13 = getelementptr inbounds nuw i8, ptr %11, i64 8
  %14 = getelementptr inbounds nuw i8, ptr %11, i64 16
  store i64 0, ptr %14, align 8
  store i32 33619968, ptr %11, align 8, !tbaa !3
  store ptr %10, ptr %13, align 8, !tbaa !10
  %15 = invoke noundef nonnull align 8 dereferenceable(24) ptr @_ZN2cv7noArrayEv()
          to label %16 unwind label %25

16:                                               ; preds = %9
  invoke void @_ZN2cv7fisheye15undistortPointsERKNS_11_InputArrayERKNS_12_OutputArrayES3_S3_S3_S3_NS_12TermCriteriaE(ptr noundef nonnull align 8 dereferenceable(24) %1, ptr noundef nonnull align 8 dereferenceable(24) %11, ptr noundef nonnull align 8 dereferenceable(24) %2, ptr noundef nonnull align 8 dereferenceable(24) %3, ptr noundef nonnull align 8 dereferenceable(24) %15, ptr noundef nonnull align 8 dereferenceable(24) %2, ptr noundef nonnull byval(%"class.cv::TermCriteria") align 8 %8)
          to label %17 unwind label %25

17:                                               ; preds = %16
  call void @llvm.lifetime.end.p0(i64 24, ptr nonnull %11) #23
  call void @llvm.lifetime.start.p0(i64 24, ptr nonnull %12) #23
  %18 = getelementptr inbounds nuw i8, ptr %12, i64 16
  store i32 0, ptr %18, align 8, !tbaa !363
  %19 = getelementptr inbounds nuw i8, ptr %12, i64 20
  store i32 0, ptr %19, align 4, !tbaa !364
  store i32 16842752, ptr %12, align 8, !tbaa !3
  %20 = getelementptr inbounds nuw i8, ptr %12, i64 8
  store ptr %10, ptr %20, align 8, !tbaa !10
  %21 = invoke noundef nonnull align 8 dereferenceable(24) ptr @_ZN2cv7noArrayEv()
          to label %22 unwind label %27

22:                                               ; preds = %17
  %23 = invoke noundef zeroext i1 @_ZN2cv8solvePnPERKNS_11_InputArrayES2_S2_S2_RKNS_12_OutputArrayES5_bi(ptr noundef nonnull align 8 dereferenceable(24) %0, ptr noundef nonnull align 8 dereferenceable(24) %12, ptr noundef nonnull align 8 dereferenceable(24) %2, ptr noundef nonnull align 8 dereferenceable(24) %21, ptr noundef nonnull align 8 dereferenceable(24) %4, ptr noundef nonnull align 8 dereferenceable(24) %5, i1 noundef zeroext %6, i32 noundef %7)
          to label %24 unwind label %27

24:                                               ; preds = %22
  call void @llvm.lifetime.end.p0(i64 24, ptr nonnull %12) #23
  call void @_ZN2cv3MatD1Ev(ptr noundef nonnull align 8 dereferenceable(96) %10) #23
  call void @llvm.lifetime.end.p0(i64 96, ptr nonnull %10) #23
  ret i1 %23

25:                                               ; preds = %16, %9
  %26 = landingpad { ptr, i32 }
          cleanup
  call void @llvm.lifetime.end.p0(i64 24, ptr nonnull %11) #23
  br label %29

27:                                               ; preds = %22, %17
  %28 = landingpad { ptr, i32 }
          cleanup
  call void @llvm.lifetime.end.p0(i64 24, ptr nonnull %12) #23
  br label %29

29:                                               ; preds = %27, %25
  %.pn15.pn = phi { ptr, i32 } [ %28, %27 ], [ %26, %25 ]
  call void @_ZN2cv3MatD1Ev(ptr noundef nonnull align 8 dereferenceable(96) %10) #23
  call void @llvm.lifetime.end.p0(i64 96, ptr nonnull %10) #23
  resume { ptr, i32 } %.pn15.pn
}